; Function Attrs: mustprogress uwtable
define hidden void @_ZN13rewriter_core11free_memoryEv(ptr nocapture noundef nonnull align 8 dereferenceable(144) %this) local_unnamed_addr #3 align 2 {
entry:
  tail call void @_ZN13rewriter_core15del_cache_stackEv(ptr noundef nonnull align 8 dereferenceable(144) %this)
  %m_frame_stack = getelementptr inbounds i8, ptr %this, i64 40
  %0 = load ptr, ptr %m_frame_stack, align 8
  %tobool.not.i.i = icmp eq ptr %0, null
  br i1 %tobool.not.i.i, label %_ZN6vectorIN13rewriter_core5frameELb0EjE8finalizeEv.exit, label %if.then.i.i

if.then.i.i:                                      ; preds = %entry
  %add.ptr.i.i.i = getelementptr inbounds i8, ptr %0, i64 -8
  tail call void @_ZN6memory10deallocateEPv(ptr noundef nonnull %add.ptr.i.i.i)
  br label %_ZN6vectorIN13rewriter_core5frameELb0EjE8finalizeEv.exit

_ZN6vectorIN13rewriter_core5frameELb0EjE8finalizeEv.exit: ; preds = %entry, %if.then.i.i
  store ptr null, ptr %m_frame_stack, align 8
  %m_result_stack = getelementptr inbounds i8, ptr %this, i64 48
  %m_nodes.i = getelementptr inbounds i8, ptr %this, i64 56
  %1 = load ptr, ptr %m_nodes.i, align 8
  %cmp.i.i = icmp eq ptr %1, null
  br i1 %cmp.i.i, label %_ZN15ref_vector_coreI4expr19ref_manager_wrapperIS0_11ast_managerEE8finalizeEv.exit, label %_ZNK6vectorIP4exprLb0EjE4sizeEv.exit.i

_ZNK6vectorIP4exprLb0EjE4sizeEv.exit.i:           ; preds = %_ZN6vectorIN13rewriter_core5frameELb0EjE8finalizeEv.exit
  %arrayidx.i.i = getelementptr inbounds i8, ptr %1, i64 -4
  %2 = load i32, ptr %arrayidx.i.i, align 4
  %3 = zext i32 %2 to i64
  %add.ptr.i = getelementptr inbounds ptr, ptr %1, i64 %3
  %cmp3.i.not.i = icmp eq i32 %2, 0
  br i1 %cmp3.i.not.i, label %if.then.i.i.i, label %for.body.i.i

for.body.i.i:                                     ; preds = %_ZNK6vectorIP4exprLb0EjE4sizeEv.exit.i, %_ZN15ref_vector_coreI4expr19ref_manager_wrapperIS0_11ast_managerEE7dec_refEPS0_.exit.i.i
  %it.04.i.i = phi ptr [ %incdec.ptr.i.i, %_ZN15ref_vector_coreI4expr19ref_manager_wrapperIS0_11ast_managerEE7dec_refEPS0_.exit.i.i ], [ %1, %_ZNK6vectorIP4exprLb0EjE4sizeEv.exit.i ]
  %4 = load ptr, ptr %it.04.i.i, align 8
  %5 = load ptr, ptr %m_result_stack, align 8
  %tobool.not.i.i.i.i.i = icmp eq ptr %4, null
  br i1 %tobool.not.i.i.i.i.i, label %_ZN15ref_vector_coreI4expr19ref_manager_wrapperIS0_11ast_managerEE7dec_refEPS0_.exit.i.i, label %if.then.i.i.i.i.i

if.then.i.i.i.i.i:                                ; preds = %for.body.i.i
  %m_ref_count.i.i.i.i.i.i = getelementptr inbounds i8, ptr %4, i64 8
  %6 = load i32, ptr %m_ref_count.i.i.i.i.i.i, align 4
  %dec.i.i.i.i.i.i = add i32 %6, -1
  store i32 %dec.i.i.i.i.i.i, ptr %m_ref_count.i.i.i.i.i.i, align 4
  %cmp.i.i.i.i.i = icmp eq i32 %dec.i.i.i.i.i.i, 0
  br i1 %cmp.i.i.i.i.i, label %if.then2.i.i.i.i.i, label %_ZN15ref_vector_coreI4expr19ref_manager_wrapperIS0_11ast_managerEE7dec_refEPS0_.exit.i.i

if.then2.i.i.i.i.i:                               ; preds = %if.then.i.i.i.i.i
  tail call void @_ZN11ast_manager11delete_nodeEP3ast(ptr noundef nonnull align 8 dereferenceable(976) %5, ptr noundef nonnull %4)
  br label %_ZN15ref_vector_coreI4expr19ref_manager_wrapperIS0_11ast_managerEE7dec_refEPS0_.exit.i.i

_ZN15ref_vector_coreI4expr19ref_manager_wrapperIS0_11ast_managerEE7dec_refEPS0_.exit.i.i: ; preds = %if.then2.i.i.i.i.i, %if.then.i.i.i.i.i, %for.body.i.i
  %incdec.ptr.i.i = getelementptr inbounds i8, ptr %it.04.i.i, i64 8
  %cmp.i1.i = icmp ult ptr %incdec.ptr.i.i, %add.ptr.i
  br i1 %cmp.i1.i, label %for.body.i.i, label %_ZN15ref_vector_coreI4expr19ref_manager_wrapperIS0_11ast_managerEE13dec_range_refEPKPS0_S7_.exit.i, !llvm.loop !6

_ZN15ref_vector_coreI4expr19ref_manager_wrapperIS0_11ast_managerEE13dec_range_refEPKPS0_S7_.exit.i: ; preds = %_ZN15ref_vector_coreI4expr19ref_manager_wrapperIS0_11ast_managerEE7dec_refEPS0_.exit.i.i
  %.pre.i = load ptr, ptr %m_nodes.i, align 8
  %tobool.not.i.i.i = icmp eq ptr %.pre.i, null
  br i1 %tobool.not.i.i.i, label %_ZN15ref_vector_coreI4expr19ref_manager_wrapperIS0_11ast_managerEE8finalizeEv.exit, label %if.then.i.i.i

if.then.i.i.i:                                    ; preds = %_ZN15ref_vector_coreI4expr19ref_manager_wrapperIS0_11ast_managerEE13dec_range_refEPKPS0_S7_.exit.i, %_ZNK6vectorIP4exprLb0EjE4sizeEv.exit.i
  %7 = phi ptr [ %.pre.i, %_ZN15ref_vector_coreI4expr19ref_manager_wrapperIS0_11ast_managerEE13dec_range_refEPKPS0_S7_.exit.i ], [ %1, %_ZNK6vectorIP4exprLb0EjE4sizeEv.exit.i ]
  %add.ptr.i.i.i.i = getelementptr inbounds i8, ptr %7, i64 -8
  tail call void @_ZN6memory10deallocateEPv(ptr noundef nonnull %add.ptr.i.i.i.i)
  br label %_ZN15ref_vector_coreI4expr19ref_manager_wrapperIS0_11ast_managerEE8finalizeEv.exit

_ZN15ref_vector_coreI4expr19ref_manager_wrapperIS0_11ast_managerEE8finalizeEv.exit: ; preds = %_ZN6vectorIN13rewriter_core5frameELb0EjE8finalizeEv.exit, %_ZN15ref_vector_coreI4expr19ref_manager_wrapperIS0_11ast_managerEE13dec_range_refEPKPS0_S7_.exit.i, %if.then.i.i.i
  store ptr null, ptr %m_nodes.i, align 8
  %m_scopes = getelementptr inbounds i8, ptr %this, i64 136
  %8 = load ptr, ptr %m_scopes, align 8
  %tobool.not.i.i1 = icmp eq ptr %8, null
  br i1 %tobool.not.i.i1, label %_ZN6vectorIN13rewriter_core5scopeELb0EjE8finalizeEv.exit, label %if.then.i.i2

if.then.i.i2:                                     ; preds = %_ZN15ref_vector_coreI4expr19ref_manager_wrapperIS0_11ast_managerEE8finalizeEv.exit
  %add.ptr.i.i.i3 = getelementptr inbounds i8, ptr %8, i64 -8
  tail call void @_ZN6memory10deallocateEPv(ptr noundef nonnull %add.ptr.i.i.i3)
  br label %_ZN6vectorIN13rewriter_core5scopeELb0EjE8finalizeEv.exit

_ZN6vectorIN13rewriter_core5scopeELb0EjE8finalizeEv.exit: ; preds = %_ZN15ref_vector_coreI4expr19ref_manager_wrapperIS0_11ast_managerEE8finalizeEv.exit, %if.then.i.i2
  store ptr null, ptr %m_scopes, align 8
  ret void
}